target datalayout = "e-m:e-p270:32:32-p271:32:32-p272:64:64-i64:64-i128:128-f80:128-n8:16:32:64-S128"
target triple = "x86_64-pc-linux-gnu"

%struct.RBasic = type { i64, i64 }
%struct.RArray = type { %struct.RBasic, %union.anon.14 }
%union.anon.14 = type { %struct.anon.15 }
%struct.anon.15 = type { i64, %union.anon.16, ptr }
%union.anon.16 = type { i64 }
%struct.__va_list_tag = type { i32, i32, ptr, ptr }

@.str.46 = private unnamed_addr constant [39 x i8] c"../include/ruby/internal/core/rarray.h\00", align 1

; Function Attrs: inlinehint nounwind sspstrong willreturn memory(read) uwtable
define internal i64 @RB_FL_TEST_RAW(i64 noundef %0, i64 noundef %1) #6 {
  %3 = alloca i64, align 8
  %4 = alloca i64, align 8
  store i64 %0, ptr %3, align 8, !tbaa !7
  store i64 %1, ptr %4, align 8, !tbaa !7
  %5 = load i64, ptr %3, align 8, !tbaa !7
  %6 = inttoptr i64 %5 to ptr
  %7 = getelementptr inbounds nuw %struct.RBasic, ptr %6, i32 0, i32 0
  %8 = load i64, ptr %7, align 8, !tbaa !52
  %9 = load i64, ptr %4, align 8, !tbaa !7
  %10 = and i64 %8, %9
  ret i64 %10
}

; Function Attrs: inlinehint nounwind sspstrong willreturn memory(read) uwtable
define internal zeroext i1 @RB_FL_ANY_RAW(i64 noundef %0, i64 noundef %1) #6 {
  %3 = alloca i64, align 8
  %4 = alloca i64, align 8
  store i64 %0, ptr %3, align 8, !tbaa !7
  store i64 %1, ptr %4, align 8, !tbaa !7
  %5 = load i64, ptr %3, align 8, !tbaa !7
  %6 = load i64, ptr %4, align 8, !tbaa !7
  %7 = call i64 @RB_FL_TEST_RAW(i64 noundef %5, i64 noundef %6) #28
  %8 = icmp ne i64 %7, 0
  ret i1 %8
}

; Function Attrs: inlinehint nounwind sspstrong willreturn memory(read) uwtable
define internal ptr @rb_array_const_ptr(i64 noundef %0) #6 {
  %2 = alloca ptr, align 8
  %3 = alloca i64, align 8
  store i64 %0, ptr %3, align 8, !tbaa !7
  %4 = load i64, ptr %3, align 8, !tbaa !7
  %5 = call zeroext i1 @RB_FL_ANY_RAW(i64 noundef %4, i64 noundef 8192) #28
  br i1 %5, label %6, label %11

6:                                                ; preds = %1
  %7 = load i64, ptr %3, align 8, !tbaa !7
  %8 = inttoptr i64 %7 to ptr
  %9 = getelementptr inbounds nuw %struct.RArray, ptr %8, i32 0, i32 1
  %10 = getelementptr inbounds [1 x i64], ptr %9, i64 0, i64 0
  store ptr %10, ptr %2, align 8
  br label %17

11:                                               ; preds = %1
  %12 = load i64, ptr %3, align 8, !tbaa !7
  %13 = inttoptr i64 %12 to ptr
  %14 = getelementptr inbounds nuw %struct.RArray, ptr %13, i32 0, i32 1
  %15 = getelementptr inbounds nuw %struct.anon.15, ptr %14, i32 0, i32 2
  %16 = load ptr, ptr %15, align 8, !tbaa !13
  store ptr %16, ptr %2, align 8
  br label %17

17:                                               ; preds = %11, %6
  %18 = load ptr, ptr %2, align 8
  ret ptr %18
}

; Function Attrs: inlinehint nounwind sspstrong uwtable
define internal i64 @rb_obj_wb_unprotect(i64 noundef %0, ptr noundef %1, i32 noundef %2) #1 {
  %4 = alloca i64, align 8
  %5 = alloca ptr, align 8
  %6 = alloca i32, align 4
  store i64 %0, ptr %4, align 8, !tbaa !7
  store ptr %1, ptr %5, align 8, !tbaa !16
  store i32 %2, ptr %6, align 4, !tbaa !11
  %7 = load i64, ptr %4, align 8, !tbaa !7
  call void @rb_gc_writebarrier_unprotect(i64 noundef %7)
  %8 = load i64, ptr %4, align 8, !tbaa !7
  ret i64 %8
}

; Function Attrs: inlinehint nounwind sspstrong uwtable
define internal ptr @RARRAY_PTR(i64 noundef %0) #1 {
  %2 = alloca i64, align 8
  %3 = alloca i64, align 8
  store i64 %0, ptr %2, align 8, !tbaa !7
  call void @llvm.lifetime.start.p0(i64 8, ptr %3) #26
  %4 = load i64, ptr %2, align 8, !tbaa !7
  %5 = call i64 @rb_obj_wb_unprotect(i64 noundef %4, ptr noundef @.str.46, i32 noundef 370)
  store i64 %5, ptr %3, align 8, !tbaa !7
  %6 = load i64, ptr %3, align 8, !tbaa !7
  %7 = call ptr @rb_array_const_ptr(i64 noundef %6) #28
  call void @llvm.lifetime.end.p0(i64 8, ptr %3) #26
  ret ptr %7
}

; Function Attrs: inlinehint nounwind sspstrong uwtable
define internal i32 @rb_long2int_inline(i64 noundef %0) #1 {
  %2 = alloca i64, align 8
  %3 = alloca i32, align 4
  store i64 %0, ptr %2, align 8, !tbaa !7
  call void @llvm.lifetime.start.p0(i64 4, ptr %3) #26
  %4 = load i64, ptr %2, align 8, !tbaa !7
  %5 = trunc i64 %4 to i32
  store i32 %5, ptr %3, align 4, !tbaa !11
  %6 = load i32, ptr %3, align 4, !tbaa !11
  %7 = sext i32 %6 to i64
  %8 = load i64, ptr %2, align 8, !tbaa !7
  %9 = icmp ne i64 %7, %8
  br i1 %9, label %10, label %12

10:                                               ; preds = %1
  %11 = load i64, ptr %2, align 8, !tbaa !7
  call void @rb_out_of_int(i64 noundef %11) #32
  unreachable

12:                                               ; preds = %1
  %13 = load i32, ptr %3, align 4, !tbaa !11
  call void @llvm.lifetime.end.p0(i64 4, ptr %3) #26
  ret i32 %13
}

; Function Attrs: nounwind sspstrong uwtable
define dso_local i64 @rb_struct_new(i64 noundef %0, ...) #0 {
  %2 = alloca i64, align 8
  %3 = alloca [16 x i64], align 16
  %4 = alloca ptr, align 8
  %5 = alloca i32, align 4
  %6 = alloca i32, align 4
  %7 = alloca [1 x %struct.__va_list_tag], align 16
  store i64 %0, ptr %2, align 8, !tbaa !7
  call void @llvm.lifetime.start.p0(i64 128, ptr %3) #26
  call void @llvm.lifetime.start.p0(i64 8, ptr %4) #26
  %8 = getelementptr inbounds [16 x i64], ptr %3, i64 0, i64 0
  store ptr %8, ptr %4, align 8, !tbaa !28
  call void @llvm.lifetime.start.p0(i64 4, ptr %5) #26
  call void @llvm.lifetime.start.p0(i64 4, ptr %6) #26
  call void @llvm.lifetime.start.p0(i64 24, ptr %7) #26
  %9 = load i64, ptr %2, align 8, !tbaa !7
  %10 = call i64 @num_members(i64 noundef %9)
  %11 = call i32 @rb_long2int_inline(i64 noundef %10)
  store i32 %11, ptr %5, align 4, !tbaa !11
  %12 = load i32, ptr %5, align 4, !tbaa !11
  %13 = icmp sgt i32 %12, 16
  br i1 %13, label %14, label %22

14:                                               ; preds = %1
  %15 = load i32, ptr %5, align 4, !tbaa !11
  %16 = sext i32 %15 to i64
  %17 = call i64 @rb_ary_hidden_new(i64 noundef %16)
  %18 = getelementptr [16 x i64], ptr %3, i64 0, i64 0
  store i64 %17, ptr %18, align 16, !tbaa !7
  %19 = getelementptr [16 x i64], ptr %3, i64 0, i64 0
  %20 = load i64, ptr %19, align 16, !tbaa !7
  %21 = call ptr @RARRAY_PTR(i64 noundef %20)
  store ptr %21, ptr %4, align 8, !tbaa !28
  br label %22

22:                                               ; preds = %14, %1
  %23 = getelementptr inbounds [1 x %struct.__va_list_tag], ptr %7, i64 0, i64 0
  call void @llvm.va_start.p0(ptr %23)
  store i32 0, ptr %6, align 4, !tbaa !11
  br label %24

24:                                               ; preds = %49, %22
  %25 = load i32, ptr %6, align 4, !tbaa !11
  %26 = load i32, ptr %5, align 4, !tbaa !11
  %27 = icmp slt i32 %25, %26
  br i1 %27, label %28, label %52

28:                                               ; preds = %24
  %29 = getelementptr inbounds [1 x %struct.__va_list_tag], ptr %7, i64 0, i64 0
  %30 = getelementptr inbounds nuw %struct.__va_list_tag, ptr %29, i32 0, i32 0
  %31 = load i32, ptr %30, align 16
  %32 = icmp ule i32 %31, 40
  br i1 %32, label %33, label %38

33:                                               ; preds = %28
  %34 = getelementptr inbounds nuw %struct.__va_list_tag, ptr %29, i32 0, i32 3
  %35 = load ptr, ptr %34, align 16
  %36 = getelementptr i8, ptr %35, i32 %31
  %37 = add i32 %31, 8
  store i32 %37, ptr %30, align 16
  br label %42

38:                                               ; preds = %28
  %39 = getelementptr inbounds nuw %struct.__va_list_tag, ptr %29, i32 0, i32 2
  %40 = load ptr, ptr %39, align 8
  %41 = getelementptr i8, ptr %40, i32 8
  store ptr %41, ptr %39, align 8
  br label %42

42:                                               ; preds = %38, %33
  %43 = phi ptr [ %36, %33 ], [ %40, %38 ]
  %44 = load i64, ptr %43, align 8, !tbaa !7
  %45 = load ptr, ptr %4, align 8, !tbaa !28
  %46 = load i32, ptr %6, align 4, !tbaa !11
  %47 = sext i32 %46 to i64
  %48 = getelementptr i64, ptr %45, i64 %47
  store i64 %44, ptr %48, align 8, !tbaa !7
  br label %49

49:                                               ; preds = %42
  %50 = load i32, ptr %6, align 4, !tbaa !11
  %51 = add i32 %50, 1
  store i32 %51, ptr %6, align 4, !tbaa !11
  br label %24, !llvm.loop !40

52:                                               ; preds = %24
  %53 = getelementptr inbounds [1 x %struct.__va_list_tag], ptr %7, i64 0, i64 0
  call void @llvm.va_end.p0(ptr %53)
  %54 = load i32, ptr %5, align 4, !tbaa !11
  %55 = load ptr, ptr %4, align 8, !tbaa !28
  %56 = load i64, ptr %2, align 8, !tbaa !7
  %57 = call i64 @rb_class_new_instance(i32 noundef %54, ptr noundef %55, i64 noundef %56)
  call void @llvm.lifetime.end.p0(i64 24, ptr %7) #26
  call void @llvm.lifetime.end.p0(i64 4, ptr %6) #26
  call void @llvm.lifetime.end.p0(i64 4, ptr %5) #26
  call void @llvm.lifetime.end.p0(i64 8, ptr %4) #26
  call void @llvm.lifetime.end.p0(i64 128, ptr %3) #26
  ret i64 %57
}