; Function Attrs: nounwind sspstrong uwtable
define dso_local i64 @rb_struct_new(i64 noundef %0, ...) local_unnamed_addr #0 {
  %2 = alloca [16 x i64], align 16
  %3 = alloca [1 x %struct.__va_list_tag], align 16
  call void @llvm.lifetime.start.p0(i64 128, ptr nonnull %2) #19
  call void @llvm.lifetime.start.p0(i64 24, ptr nonnull %3) #19
  %4 = tail call fastcc i64 @num_members(i64 noundef %0)
  %5 = add i64 %4, 2147483648
  %.not.i = icmp ult i64 %5, 4294967296
  br i1 %.not.i, label %rb_long2int_inline.exit, label %6

6:                                                ; preds = %1
  tail call void @rb_out_of_int(i64 noundef %4) #26
  unreachable

rb_long2int_inline.exit:                          ; preds = %1
  %7 = trunc i64 %4 to i32
  %8 = icmp sgt i32 %7, 16
  br i1 %8, label %9, label %RARRAY_PTR.exit

9:                                                ; preds = %rb_long2int_inline.exit
  %10 = and i64 %4, 2147483647
  %11 = tail call i64 @rb_ary_hidden_new(i64 noundef %10) #19
  store i64 %11, ptr %2, align 16, !tbaa !7
  tail call void @rb_gc_writebarrier_unprotect(i64 noundef %11) #19
  %12 = inttoptr i64 %11 to ptr
  %13 = load i64, ptr %12, align 8, !tbaa !11
  %14 = and i64 %13, 8192
  %.not.i.i = icmp eq i64 %14, 0
  br i1 %.not.i.i, label %17, label %15

15:                                               ; preds = %9
  %16 = getelementptr inbounds nuw i8, ptr %12, i64 16
  br label %RARRAY_PTR.exit.thread

17:                                               ; preds = %9
  %18 = getelementptr inbounds nuw i8, ptr %12, i64 32
  %19 = load ptr, ptr %18, align 8, !tbaa !13
  br label %RARRAY_PTR.exit.thread

RARRAY_PTR.exit.thread:                           ; preds = %17, %15
  %.010.ph = phi ptr [ %19, %17 ], [ %16, %15 ]
  call void @llvm.va_start.p0(ptr nonnull %3)
  br label %.lr.ph

RARRAY_PTR.exit:                                  ; preds = %rb_long2int_inline.exit
  call void @llvm.va_start.p0(ptr nonnull %3)
  %20 = icmp sgt i32 %7, 0
  br i1 %20, label %.lr.ph, label %._crit_edge

.lr.ph:                                           ; preds = %RARRAY_PTR.exit.thread, %RARRAY_PTR.exit
  %.01016 = phi ptr [ %.010.ph, %RARRAY_PTR.exit.thread ], [ %2, %RARRAY_PTR.exit ]
  %21 = getelementptr inbounds nuw i8, ptr %3, i64 8
  %22 = getelementptr inbounds nuw i8, ptr %3, i64 16
  %wide.trip.count = and i64 %4, 2147483647
  %.pre = load i32, ptr %3, align 16
  br label %23

23:                                               ; preds = %.lr.ph, %34
  %24 = phi i32 [ %.pre, %.lr.ph ], [ %35, %34 ]
  %indvars.iv = phi i64 [ 0, %.lr.ph ], [ %indvars.iv.next, %34 ]
  %25 = icmp ult i32 %24, 41
  br i1 %25, label %26, label %31

26:                                               ; preds = %23
  %27 = load ptr, ptr %22, align 16
  %28 = zext nneg i32 %24 to i64
  %29 = getelementptr i8, ptr %27, i64 %28
  %30 = add nuw nsw i32 %24, 8
  store i32 %30, ptr %3, align 16
  br label %34

31:                                               ; preds = %23
  %32 = load ptr, ptr %21, align 8
  %33 = getelementptr i8, ptr %32, i64 8
  store ptr %33, ptr %21, align 8
  br label %34

34:                                               ; preds = %31, %26
  %35 = phi i32 [ %30, %26 ], [ %24, %31 ]
  %36 = phi ptr [ %29, %26 ], [ %32, %31 ]
  %37 = load i64, ptr %36, align 8, !tbaa !7
  %38 = getelementptr i64, ptr %.01016, i64 %indvars.iv
  store i64 %37, ptr %38, align 8, !tbaa !7
  %indvars.iv.next = add nuw nsw i64 %indvars.iv, 1
  %exitcond.not = icmp eq i64 %indvars.iv.next, %wide.trip.count
  br i1 %exitcond.not, label %._crit_edge, label %23, !llvm.loop !40

._crit_edge:                                      ; preds = %34, %RARRAY_PTR.exit
  %.01017 = phi ptr [ %2, %RARRAY_PTR.exit ], [ %.01016, %34 ]
  call void @llvm.va_end.p0(ptr nonnull %3)
  %39 = call i64 @rb_class_new_instance(i32 noundef %7, ptr noundef nonnull %.01017, i64 noundef %0) #19
  call void @llvm.lifetime.end.p0(i64 24, ptr nonnull %3) #19
  call void @llvm.lifetime.end.p0(i64 128, ptr nonnull %2) #19
  ret i64 %39
}